; Function Attrs: mustprogress nofree norecurse nosync nounwind willreturn memory(argmem: read) uwtable
define noundef i32 @_ZNK10open_spiel12connect_four16ConnectFourState6CellAtEii(ptr noundef nonnull readonly align 8 captures(none) dereferenceable(236) %0, i32 noundef %1, i32 noundef %2) local_unnamed_addr #7 align 2 {
  %4 = getelementptr inbounds nuw i8, ptr %0, i64 68
  %5 = mul nsw i32 %1, 7
  %6 = add nsw i32 %5, %2
  %7 = sext i32 %6 to i64
  %8 = getelementptr inbounds [42 x i32], ptr %4, i64 0, i64 %7
  %9 = load i32, ptr %8, align 4
  ret i32 %9
}